; Function Attrs: nounwind uwtable
define i32 @ff_tadd_doubles_metadata(i32 noundef %0, ptr noundef %1, ptr noundef %2, ptr noundef captures(none) %3, i32 noundef %4, ptr noundef %5) local_unnamed_addr #3 {
  %7 = alloca ptr, align 8
  %8 = alloca %struct.AVBPrint, align 8
  call void @llvm.lifetime.start.p0(i64 1024, ptr nonnull %8) #8
  %9 = add i32 %0, -268435455
  %or.cond = icmp ult i32 %9, -268435454
  br i1 %or.cond, label %90, label %10

10:                                               ; preds = %6
  %11 = getelementptr inbounds nuw i8, ptr %3, i64 8
  %12 = load ptr, ptr %11, align 8, !tbaa !10
  %13 = load ptr, ptr %3, align 8, !tbaa !14
  %14 = ptrtoint ptr %12 to i64
  %15 = ptrtoint ptr %13 to i64
  %16 = sub i64 %14, %15
  %17 = trunc i64 %16 to i32
  %18 = shl nuw nsw i32 %0, 3
  %19 = icmp ugt i32 %18, %17
  br i1 %19, label %90, label %.lr.ph

.lr.ph:                                           ; preds = %10
  %20 = mul nuw nsw i32 %0, 10
  %21 = mul nuw nsw i32 %0, 100
  call void @av_bprint_init(ptr noundef nonnull %8, i32 noundef %20, i32 noundef %21) #8
  %.not.i = icmp eq ptr %2, null
  %22 = icmp samesign ugt i32 %0, 4
  %23 = select i1 %22, ptr @.str.9, ptr @.str.7
  %.not.i20 = icmp eq i32 %4, 0
  br i1 %.not.i20, label %.lr.ph.split.us, label %.lr.ph.split

.lr.ph.split.us:                                  ; preds = %.lr.ph
  br i1 %.not.i, label %.lr.ph.split.us.split.us, label %auto_sep.exit.us

.lr.ph.split.us.split.us:                         ; preds = %.lr.ph.split.us, %ff_tget_double.exit.us.us
  %.024.us.us = phi i32 [ %38, %ff_tget_double.exit.us.us ], [ 0, %.lr.ph.split.us ]
  %24 = and i32 %.024.us.us, 3
  %.not11.i.us.us = icmp eq i32 %24, 0
  %spec.select = select i1 %.not11.i.us.us, ptr %23, ptr @.str.8
  %25 = load ptr, ptr %11, align 8, !tbaa !10
  %26 = load ptr, ptr %3, align 8, !tbaa !14
  %27 = ptrtoint ptr %25 to i64
  %28 = ptrtoint ptr %26 to i64
  %29 = sub i64 %27, %28
  %30 = icmp slt i64 %29, 8
  br i1 %30, label %36, label %31

31:                                               ; preds = %.lr.ph.split.us.split.us
  %32 = getelementptr inbounds nuw i8, ptr %26, i64 8
  store ptr %32, ptr %3, align 8, !tbaa !15
  %33 = load i64, ptr %26, align 1, !tbaa !16
  %34 = call noundef i64 @llvm.bswap.i64(i64 %33)
  %35 = bitcast i64 %34 to double
  br label %ff_tget_double.exit.us.us

36:                                               ; preds = %.lr.ph.split.us.split.us
  store ptr %25, ptr %3, align 8, !tbaa !14
  br label %ff_tget_double.exit.us.us

ff_tget_double.exit.us.us:                        ; preds = %36, %31
  %37 = phi double [ 0.000000e+00, %36 ], [ %35, %31 ]
  call void (ptr, ptr, ...) @av_bprintf(ptr noundef nonnull %8, ptr noundef nonnull @.str.2, ptr noundef nonnull %spec.select, double noundef %37) #8
  %38 = add nuw nsw i32 %.024.us.us, 1
  %exitcond36.not = icmp eq i32 %38, %0
  br i1 %exitcond36.not, label %._crit_edge, label %.lr.ph.split.us.split.us, !llvm.loop !23

auto_sep.exit.us:                                 ; preds = %.lr.ph.split.us, %ff_tget_double.exit.us
  %.024.us = phi i32 [ %53, %ff_tget_double.exit.us ], [ 0, %.lr.ph.split.us ]
  %.not10.i.us = icmp eq i32 %.024.us, 0
  %39 = select i1 %.not10.i.us, ptr @.str.7, ptr %2
  %40 = load ptr, ptr %11, align 8, !tbaa !10
  %41 = load ptr, ptr %3, align 8, !tbaa !14
  %42 = ptrtoint ptr %40 to i64
  %43 = ptrtoint ptr %41 to i64
  %44 = sub i64 %42, %43
  %45 = icmp slt i64 %44, 8
  br i1 %45, label %51, label %46

46:                                               ; preds = %auto_sep.exit.us
  %47 = getelementptr inbounds nuw i8, ptr %41, i64 8
  store ptr %47, ptr %3, align 8, !tbaa !15
  %48 = load i64, ptr %41, align 1, !tbaa !16
  %49 = call noundef i64 @llvm.bswap.i64(i64 %48)
  %50 = bitcast i64 %49 to double
  br label %ff_tget_double.exit.us

51:                                               ; preds = %auto_sep.exit.us
  store ptr %40, ptr %3, align 8, !tbaa !14
  br label %ff_tget_double.exit.us

ff_tget_double.exit.us:                           ; preds = %51, %46
  %52 = phi double [ 0.000000e+00, %51 ], [ %50, %46 ]
  call void (ptr, ptr, ...) @av_bprintf(ptr noundef nonnull %8, ptr noundef nonnull @.str.2, ptr noundef nonnull %39, double noundef %52) #8
  %53 = add nuw nsw i32 %.024.us, 1
  %exitcond35.not = icmp eq i32 %53, %0
  br i1 %exitcond35.not, label %._crit_edge, label %auto_sep.exit.us, !llvm.loop !23

.lr.ph.split:                                     ; preds = %.lr.ph
  br i1 %.not.i, label %.lr.ph.split.split.us, label %auto_sep.exit

.lr.ph.split.split.us:                            ; preds = %.lr.ph.split, %ff_tget_double.exit.us29
  %.024.us25 = phi i32 [ %66, %ff_tget_double.exit.us29 ], [ 0, %.lr.ph.split ]
  %54 = and i32 %.024.us25, 3
  %.not11.i.us26 = icmp eq i32 %54, 0
  %spec.select30 = select i1 %.not11.i.us26, ptr %23, ptr @.str.8
  %55 = load ptr, ptr %11, align 8, !tbaa !10
  %56 = load ptr, ptr %3, align 8, !tbaa !14
  %57 = ptrtoint ptr %55 to i64
  %58 = ptrtoint ptr %56 to i64
  %59 = sub i64 %57, %58
  %60 = icmp slt i64 %59, 8
  br i1 %60, label %64, label %61

61:                                               ; preds = %.lr.ph.split.split.us
  %62 = getelementptr inbounds nuw i8, ptr %56, i64 8
  store ptr %62, ptr %3, align 8, !tbaa !15
  %63 = load double, ptr %56, align 1, !tbaa !16
  br label %ff_tget_double.exit.us29

64:                                               ; preds = %.lr.ph.split.split.us
  store ptr %55, ptr %3, align 8, !tbaa !14
  br label %ff_tget_double.exit.us29

ff_tget_double.exit.us29:                         ; preds = %64, %61
  %65 = phi double [ 0.000000e+00, %64 ], [ %63, %61 ]
  call void (ptr, ptr, ...) @av_bprintf(ptr noundef nonnull %8, ptr noundef nonnull @.str.2, ptr noundef nonnull %spec.select30, double noundef %65) #8
  %66 = add nuw nsw i32 %.024.us25, 1
  %exitcond34.not = icmp eq i32 %66, %0
  br i1 %exitcond34.not, label %._crit_edge, label %.lr.ph.split.split.us, !llvm.loop !23

auto_sep.exit:                                    ; preds = %.lr.ph.split, %ff_tget_double.exit
  %.024 = phi i32 [ %79, %ff_tget_double.exit ], [ 0, %.lr.ph.split ]
  %.not10.i = icmp eq i32 %.024, 0
  %67 = select i1 %.not10.i, ptr @.str.7, ptr %2
  %68 = load ptr, ptr %11, align 8, !tbaa !10
  %69 = load ptr, ptr %3, align 8, !tbaa !14
  %70 = ptrtoint ptr %68 to i64
  %71 = ptrtoint ptr %69 to i64
  %72 = sub i64 %70, %71
  %73 = icmp slt i64 %72, 8
  br i1 %73, label %74, label %75

74:                                               ; preds = %auto_sep.exit
  store ptr %68, ptr %3, align 8, !tbaa !14
  br label %ff_tget_double.exit

75:                                               ; preds = %auto_sep.exit
  %76 = getelementptr inbounds nuw i8, ptr %69, i64 8
  store ptr %76, ptr %3, align 8, !tbaa !15
  %77 = load double, ptr %69, align 1, !tbaa !16
  br label %ff_tget_double.exit

ff_tget_double.exit:                              ; preds = %74, %75
  %78 = phi double [ 0.000000e+00, %74 ], [ %77, %75 ]
  call void (ptr, ptr, ...) @av_bprintf(ptr noundef nonnull %8, ptr noundef nonnull @.str.2, ptr noundef nonnull %67, double noundef %78) #8
  %79 = add nuw nsw i32 %.024, 1
  %exitcond.not = icmp eq i32 %79, %0
  br i1 %exitcond.not, label %._crit_edge, label %auto_sep.exit, !llvm.loop !23

._crit_edge:                                      ; preds = %ff_tget_double.exit, %ff_tget_double.exit.us29, %ff_tget_double.exit.us, %ff_tget_double.exit.us.us
  call void @llvm.lifetime.start.p0(i64 8, ptr nonnull %7) #8
  %80 = getelementptr inbounds nuw i8, ptr %8, i64 8
  %.val.i = load i32, ptr %80, align 8, !tbaa !18
  %81 = getelementptr inbounds nuw i8, ptr %8, i64 12
  %.val7.i = load i32, ptr %81, align 4, !tbaa !21
  %.not.i21 = icmp ult i32 %.val.i, %.val7.i
  br i1 %.not.i21, label %84, label %82

82:                                               ; preds = %._crit_edge
  %83 = call i32 @av_bprint_finalize(ptr noundef nonnull %8, ptr noundef null) #8
  br label %bprint_to_avdict.exit

84:                                               ; preds = %._crit_edge
  %85 = call i32 @av_bprint_finalize(ptr noundef nonnull %8, ptr noundef nonnull %7) #8
  %86 = icmp slt i32 %85, 0
  br i1 %86, label %bprint_to_avdict.exit, label %87

87:                                               ; preds = %84
  %88 = load ptr, ptr %7, align 8, !tbaa !15
  %89 = call i32 @av_dict_set(ptr noundef %5, ptr noundef %1, ptr noundef %88, i32 noundef 8) #8
  br label %bprint_to_avdict.exit

bprint_to_avdict.exit:                            ; preds = %82, %84, %87
  %.0.i22 = phi i32 [ %89, %87 ], [ -12, %82 ], [ %85, %84 ]
  call void @llvm.lifetime.end.p0(i64 8, ptr nonnull %7) #8
  br label %90

90:                                               ; preds = %10, %6, %bprint_to_avdict.exit
  %.017 = phi i32 [ %.0.i22, %bprint_to_avdict.exit ], [ -1094995529, %6 ], [ -1094995529, %10 ]
  call void @llvm.lifetime.end.p0(i64 1024, ptr nonnull %8) #8
  ret i32 %.017
}